target datalayout = "e-m:e-p270:32:32-p271:32:32-p272:64:64-i64:64-i128:128-f80:128-n8:16:32:64-S128"
target triple = "x86_64-pc-linux-gnu"

%struct.auth_credential_t = type { i32, i32, ptr, i8, %struct.in_addr, i8, i32, i32, ptr, i32 }
%struct.in_addr = type { i32 }

; Function Attrs: nounwind uwtable
define dso_local void @auth_p_get_ids(ptr noundef %0, ptr noundef %1, ptr noundef %2) #0 {
  %4 = alloca ptr, align 8
  %5 = alloca ptr, align 8
  %6 = alloca ptr, align 8
  store ptr %0, ptr %4, align 8
  store ptr %1, ptr %5, align 8
  store ptr %2, ptr %6, align 8
  %7 = load ptr, ptr %4, align 8
  %8 = icmp ne ptr %7, null
  br i1 %8, label %9, label %14

9:                                                ; preds = %3
  %10 = load ptr, ptr %4, align 8
  %11 = getelementptr inbounds nuw %struct.auth_credential_t, ptr %10, i32 0, i32 5
  %12 = load i8, ptr %11, align 8, !range !8, !noundef !9
  %13 = trunc i8 %12 to i1
  br i1 %13, label %17, label %14

14:                                               ; preds = %9, %3
  %15 = load ptr, ptr %5, align 8
  store i32 99, ptr %15, align 4
  %16 = load ptr, ptr %6, align 8
  store i32 99, ptr %16, align 4
  br label %26

17:                                               ; preds = %9
  %18 = load ptr, ptr %4, align 8
  %19 = getelementptr inbounds nuw %struct.auth_credential_t, ptr %18, i32 0, i32 6
  %20 = load i32, ptr %19, align 4
  %21 = load ptr, ptr %5, align 8
  store i32 %20, ptr %21, align 4
  %22 = load ptr, ptr %4, align 8
  %23 = getelementptr inbounds nuw %struct.auth_credential_t, ptr %22, i32 0, i32 7
  %24 = load i32, ptr %23, align 8
  %25 = load ptr, ptr %6, align 8
  store i32 %24, ptr %25, align 4
  br label %26

26:                                               ; preds = %17, %14
  ret void
}